target datalayout = "e-m:e-p270:32:32-p271:32:32-p272:64:64-i64:64-i128:128-f80:128-n8:16:32:64-S128"
target triple = "x86_64-pc-linux-gnu"

%struct.PACKET = type { ptr, i64 }

@smbuf = internal global [256 x i8] zeroinitializer, align 16
@.str.25 = private unnamed_addr constant [29 x i8] c"../openssl/test/packettest.c\00", align 1
@.str.27 = private unnamed_addr constant [23 x i8] c"PACKET_remaining(&pkt)\00", align 1
@.str.30 = private unnamed_addr constant [8 x i8] c"BUF_LEN\00", align 1
@.str.34 = private unnamed_addr constant [38 x i8] c"PACKET_buf_init(&pkt, smbuf, BUF_LEN)\00", align 1
@.str.83 = private unnamed_addr constant [42 x i8] c"PACKET_copy_all(&pkt, tmp, BUF_LEN, &len)\00", align 1
@.str.84 = private unnamed_addr constant [4 x i8] c"len\00", align 1
@.str.85 = private unnamed_addr constant [6 x i8] c"smbuf\00", align 1
@.str.86 = private unnamed_addr constant [4 x i8] c"tmp\00", align 1
@.str.87 = private unnamed_addr constant [46 x i8] c"PACKET_copy_all(&pkt, tmp, BUF_LEN - 1, &len)\00", align 1

; Function Attrs: inlinehint nounwind uwtable
define internal i64 @PACKET_remaining(ptr noundef %0) #4 {
  %2 = alloca ptr, align 8
  store ptr %0, ptr %2, align 8, !tbaa !33
  %3 = load ptr, ptr %2, align 8, !tbaa !33
  %4 = getelementptr inbounds nuw %struct.PACKET, ptr %3, i32 0, i32 1
  %5 = load i64, ptr %4, align 8, !tbaa !31
  ret i64 %5
}

; Function Attrs: inlinehint nounwind uwtable
define internal i32 @PACKET_copy_all(ptr noundef %0, ptr noundef %1, i64 noundef %2, ptr noundef %3) #4 {
  %5 = alloca i32, align 4
  %6 = alloca ptr, align 8
  %7 = alloca ptr, align 8
  %8 = alloca i64, align 8
  %9 = alloca ptr, align 8
  store ptr %0, ptr %6, align 8, !tbaa !33
  store ptr %1, ptr %7, align 8, !tbaa !13
  store i64 %2, ptr %8, align 8, !tbaa !11
  store ptr %3, ptr %9, align 8, !tbaa !36
  %10 = load ptr, ptr %6, align 8, !tbaa !33
  %11 = call i64 @PACKET_remaining(ptr noundef %10)
  %12 = load i64, ptr %8, align 8, !tbaa !11
  %13 = icmp ugt i64 %11, %12
  br i1 %13, label %14, label %16

14:                                               ; preds = %4
  %15 = load ptr, ptr %9, align 8, !tbaa !36
  store i64 0, ptr %15, align 8, !tbaa !11
  store i32 0, ptr %5, align 4
  br label %28

16:                                               ; preds = %4
  %17 = load ptr, ptr %6, align 8, !tbaa !33
  %18 = getelementptr inbounds nuw %struct.PACKET, ptr %17, i32 0, i32 1
  %19 = load i64, ptr %18, align 8, !tbaa !31
  %20 = load ptr, ptr %9, align 8, !tbaa !36
  store i64 %19, ptr %20, align 8, !tbaa !11
  %21 = load ptr, ptr %7, align 8, !tbaa !13
  %22 = load ptr, ptr %6, align 8, !tbaa !33
  %23 = getelementptr inbounds nuw %struct.PACKET, ptr %22, i32 0, i32 0
  %24 = load ptr, ptr %23, align 8, !tbaa !29
  %25 = load ptr, ptr %6, align 8, !tbaa !33
  %26 = getelementptr inbounds nuw %struct.PACKET, ptr %25, i32 0, i32 1
  %27 = load i64, ptr %26, align 8, !tbaa !31
  call void @llvm.memcpy.p0.p0.i64(ptr align 1 %21, ptr align 1 %24, i64 %27, i1 false)
  store i32 1, ptr %5, align 4
  br label %28

28:                                               ; preds = %16, %14
  %29 = load i32, ptr %5, align 4
  ret i32 %29
}

; Function Attrs: inlinehint nounwind uwtable
define internal i32 @PACKET_buf_init(ptr noundef %0, ptr noundef %1, i64 noundef %2) #4 {
  %4 = alloca i32, align 4
  %5 = alloca ptr, align 8
  %6 = alloca ptr, align 8
  %7 = alloca i64, align 8
  store ptr %0, ptr %5, align 8, !tbaa !33
  store ptr %1, ptr %6, align 8, !tbaa !13
  store i64 %2, ptr %7, align 8, !tbaa !11
  %8 = load i64, ptr %7, align 8, !tbaa !11
  %9 = icmp ugt i64 %8, 9223372036854775807
  br i1 %9, label %10, label %11

10:                                               ; preds = %3
  store i32 0, ptr %4, align 4
  br label %18

11:                                               ; preds = %3
  %12 = load ptr, ptr %6, align 8, !tbaa !13
  %13 = load ptr, ptr %5, align 8, !tbaa !33
  %14 = getelementptr inbounds nuw %struct.PACKET, ptr %13, i32 0, i32 0
  store ptr %12, ptr %14, align 8, !tbaa !29
  %15 = load i64, ptr %7, align 8, !tbaa !11
  %16 = load ptr, ptr %5, align 8, !tbaa !33
  %17 = getelementptr inbounds nuw %struct.PACKET, ptr %16, i32 0, i32 1
  store i64 %15, ptr %17, align 8, !tbaa !31
  store i32 1, ptr %4, align 4
  br label %18

18:                                               ; preds = %11, %10
  %19 = load i32, ptr %4, align 4
  ret i32 %19
}

; Function Attrs: nounwind uwtable
define internal i32 @test_PACKET_copy_all() #0 {
  %1 = alloca i32, align 4
  %2 = alloca [255 x i8], align 16
  %3 = alloca %struct.PACKET, align 8
  %4 = alloca i64, align 8
  %5 = alloca i32, align 4
  call void @llvm.lifetime.start.p0(i64 255, ptr %2) #7
  call void @llvm.lifetime.start.p0(i64 16, ptr %3) #7
  call void @llvm.lifetime.start.p0(i64 8, ptr %4) #7
  %6 = call i32 @PACKET_buf_init(ptr noundef %3, ptr noundef @smbuf, i64 noundef 255)
  %7 = icmp ne i32 %6, 0
  %8 = zext i1 %7 to i32
  %9 = call i32 @test_true(ptr noundef @.str.25, i32 noundef 208, ptr noundef @.str.34, i32 noundef %8)
  %10 = icmp ne i32 %9, 0
  br i1 %10, label %11, label %37

11:                                               ; preds = %0
  %12 = getelementptr inbounds [255 x i8], ptr %2, i64 0, i64 0
  %13 = call i32 @PACKET_copy_all(ptr noundef %3, ptr noundef %12, i64 noundef 255, ptr noundef %4)
  %14 = icmp ne i32 %13, 0
  %15 = zext i1 %14 to i32
  %16 = call i32 @test_true(ptr noundef @.str.25, i32 noundef 209, ptr noundef @.str.83, i32 noundef %15)
  %17 = icmp ne i32 %16, 0
  br i1 %17, label %18, label %37

18:                                               ; preds = %11
  %19 = load i64, ptr %4, align 8, !tbaa !11
  %20 = call i32 @test_size_t_eq(ptr noundef @.str.25, i32 noundef 210, ptr noundef @.str.84, ptr noundef @.str.30, i64 noundef %19, i64 noundef 255)
  %21 = icmp ne i32 %20, 0
  br i1 %21, label %22, label %37

22:                                               ; preds = %18
  %23 = getelementptr inbounds [255 x i8], ptr %2, i64 0, i64 0
  %24 = call i32 @test_mem_eq(ptr noundef @.str.25, i32 noundef 211, ptr noundef @.str.85, ptr noundef @.str.86, ptr noundef @smbuf, i64 noundef 255, ptr noundef %23, i64 noundef 255)
  %25 = icmp ne i32 %24, 0
  br i1 %25, label %26, label %37

26:                                               ; preds = %22
  %27 = call i64 @PACKET_remaining(ptr noundef %3)
  %28 = call i32 @test_size_t_eq(ptr noundef @.str.25, i32 noundef 212, ptr noundef @.str.27, ptr noundef @.str.30, i64 noundef %27, i64 noundef 255)
  %29 = icmp ne i32 %28, 0
  br i1 %29, label %30, label %37

30:                                               ; preds = %26
  %31 = getelementptr inbounds [255 x i8], ptr %2, i64 0, i64 0
  %32 = call i32 @PACKET_copy_all(ptr noundef %3, ptr noundef %31, i64 noundef 254, ptr noundef %4)
  %33 = icmp ne i32 %32, 0
  %34 = zext i1 %33 to i32
  %35 = call i32 @test_false(ptr noundef @.str.25, i32 noundef 213, ptr noundef @.str.87, i32 noundef %34)
  %36 = icmp ne i32 %35, 0
  br i1 %36, label %38, label %37

37:                                               ; preds = %30, %26, %22, %18, %11, %0
  store i32 0, ptr %1, align 4
  store i32 1, ptr %5, align 4
  br label %39

38:                                               ; preds = %30
  store i32 1, ptr %1, align 4
  store i32 1, ptr %5, align 4
  br label %39

39:                                               ; preds = %38, %37
  call void @llvm.lifetime.end.p0(i64 8, ptr %4) #7
  call void @llvm.lifetime.end.p0(i64 16, ptr %3) #7
  call void @llvm.lifetime.end.p0(i64 255, ptr %2) #7
  %40 = load i32, ptr %1, align 4
  ret i32 %40
}