; Function Attrs: nounwind uwtable
define internal range(i32 0, 2) i32 @test_PACKET_copy_all() #0 {
  %1 = alloca [255 x i8], align 16
  call void @llvm.lifetime.start.p0(i64 255, ptr nonnull %1) #6
  %2 = tail call i32 @test_true(ptr noundef nonnull @.str.25, i32 noundef 208, ptr noundef nonnull @.str.34, i32 noundef 1) #6
  %.not = icmp eq i32 %2, 0
  br i1 %.not, label %11, label %PACKET_copy_all.exit

PACKET_copy_all.exit:                             ; preds = %0
  call void @llvm.memcpy.p0.p0.i64(ptr noundef nonnull align 16 dereferenceable(255) %1, ptr noundef nonnull readonly align 16 dereferenceable(255) @smbuf, i64 255, i1 false)
  %3 = tail call i32 @test_true(ptr noundef nonnull @.str.25, i32 noundef 209, ptr noundef nonnull @.str.83, i32 noundef 1) #6
  %.not1 = icmp eq i32 %3, 0
  br i1 %.not1, label %11, label %4

4:                                                ; preds = %PACKET_copy_all.exit
  %5 = tail call i32 @test_size_t_eq(ptr noundef nonnull @.str.25, i32 noundef 210, ptr noundef nonnull @.str.84, ptr noundef nonnull @.str.30, i64 noundef 255, i64 noundef 255) #6
  %.not2 = icmp eq i32 %5, 0
  br i1 %.not2, label %11, label %6

6:                                                ; preds = %4
  %7 = call i32 @test_mem_eq(ptr noundef nonnull @.str.25, i32 noundef 211, ptr noundef nonnull @.str.85, ptr noundef nonnull @.str.86, ptr noundef nonnull @smbuf, i64 noundef 255, ptr noundef nonnull %1, i64 noundef 255) #6
  %.not3 = icmp eq i32 %7, 0
  br i1 %.not3, label %11, label %8

8:                                                ; preds = %6
  %9 = call i32 @test_size_t_eq(ptr noundef nonnull @.str.25, i32 noundef 212, ptr noundef nonnull @.str.27, ptr noundef nonnull @.str.30, i64 noundef 255, i64 noundef 255) #6
  %.not4 = icmp eq i32 %9, 0
  br i1 %.not4, label %11, label %PACKET_copy_all.exit11

PACKET_copy_all.exit11:                           ; preds = %8
  %10 = call i32 @test_false(ptr noundef nonnull @.str.25, i32 noundef 213, ptr noundef nonnull @.str.87, i32 noundef 0) #6
  %.not5 = icmp ne i32 %10, 0
  %spec.select = zext i1 %.not5 to i32
  br label %11

11:                                               ; preds = %PACKET_copy_all.exit11, %0, %PACKET_copy_all.exit, %4, %6, %8
  %.0 = phi i32 [ 0, %8 ], [ 0, %6 ], [ 0, %4 ], [ 0, %PACKET_copy_all.exit ], [ 0, %0 ], [ %spec.select, %PACKET_copy_all.exit11 ]
  call void @llvm.lifetime.end.p0(i64 255, ptr nonnull %1) #6
  ret i32 %.0
}